target datalayout = "e-m:e-p270:32:32-p271:32:32-p272:64:64-i64:64-i128:128-f80:128-n8:16:32:64-S128"
target triple = "x86_64-pc-linux-gnu"

%"class.llvm::SmallVectorBase" = type { ptr, i32, i32 }
%"struct.llvm::detail::PunnedPointer" = type { [8 x i8] }
%"struct.(anonymous namespace)::AssignmentTrackingLowering::Assignment" = type { i32, ptr, %"class.llvm::PointerUnion.546" }
%"class.llvm::PointerUnion.546" = type { %"class.llvm::pointer_union_detail::PointerUnionMembers.547" }
%"class.llvm::pointer_union_detail::PointerUnionMembers.547" = type { %"class.llvm::pointer_union_detail::PointerUnionMembers.548" }
%"class.llvm::pointer_union_detail::PointerUnionMembers.548" = type { %"class.llvm::pointer_union_detail::PointerUnionMembers.549" }
%"class.llvm::pointer_union_detail::PointerUnionMembers.549" = type { %"class.llvm::PointerIntPair.550" }
%"class.llvm::PointerIntPair.550" = type { %"struct.llvm::detail::PunnedPointer" }

; Function Attrs: mustprogress nounwind uwtable
define internal noundef ptr @_ZNSt11__copy_moveILb0ELb1ESt26random_access_iterator_tagE8__copy_mIN12_GLOBAL__N_126AssignmentTrackingLowering10AssignmentEEEPT_PKS6_S9_S7_(ptr noundef %0, ptr noundef %1, ptr noundef %2) #1 align 2 {
  %4 = alloca ptr, align 8
  %5 = alloca ptr, align 8
  %6 = alloca ptr, align 8
  %7 = alloca i64, align 8
  store ptr %0, ptr %4, align 8
  store ptr %1, ptr %5, align 8
  store ptr %2, ptr %6, align 8
  %8 = load ptr, ptr %5, align 8
  %9 = load ptr, ptr %4, align 8
  %10 = ptrtoint ptr %8 to i64
  %11 = ptrtoint ptr %9 to i64
  %12 = sub i64 %10, %11
  %13 = sdiv exact i64 %12, 24
  store i64 %13, ptr %7, align 8
  %14 = load i64, ptr %7, align 8
  %15 = icmp ne i64 %14, 0
  br i1 %15, label %16, label %21

16:                                               ; preds = %3
  %17 = load ptr, ptr %6, align 8
  %18 = load ptr, ptr %4, align 8
  %19 = load i64, ptr %7, align 8
  %20 = mul i64 24, %19
  call void @llvm.memmove.p0.p0.i64(ptr align 8 %17, ptr align 8 %18, i64 %20, i1 false)
  br label %21

21:                                               ; preds = %16, %3
  %22 = load ptr, ptr %6, align 8
  %23 = load i64, ptr %7, align 8
  %24 = getelementptr inbounds %"struct.(anonymous namespace)::AssignmentTrackingLowering::Assignment", ptr %22, i64 %23
  ret ptr %24
}

; Function Attrs: mustprogress nounwind uwtable
define internal noundef ptr @_ZSt14__copy_move_a2ILb0EPKN12_GLOBAL__N_126AssignmentTrackingLowering10AssignmentEPS2_ET1_T0_S7_S6_(ptr noundef %0, ptr noundef %1, ptr noundef %2) #1 {
  %4 = alloca ptr, align 8
  %5 = alloca ptr, align 8
  %6 = alloca ptr, align 8
  store ptr %0, ptr %4, align 8
  store ptr %1, ptr %5, align 8
  store ptr %2, ptr %6, align 8
  %7 = load ptr, ptr %4, align 8
  %8 = load ptr, ptr %5, align 8
  %9 = load ptr, ptr %6, align 8
  %10 = call noundef ptr @_ZNSt11__copy_moveILb0ELb1ESt26random_access_iterator_tagE8__copy_mIN12_GLOBAL__N_126AssignmentTrackingLowering10AssignmentEEEPT_PKS6_S9_S7_(ptr noundef %7, ptr noundef %8, ptr noundef %9)
  ret ptr %10
}

; Function Attrs: mustprogress nounwind uwtable
define internal noundef ptr @_ZNK4llvm25SmallVectorTemplateCommonIN12_GLOBAL__N_126AssignmentTrackingLowering10AssignmentEvE10getFirstElEv(ptr noundef nonnull align 8 dereferenceable(16) %0) #1 align 2 {
  %2 = alloca ptr, align 8
  store ptr %0, ptr %2, align 8
  %3 = load ptr, ptr %2, align 8
  %4 = getelementptr inbounds i8, ptr %3, i64 16
  ret ptr %4
}

; Function Attrs: mustprogress nounwind uwtable
define internal noundef ptr @_ZSt12__niter_wrapIPN12_GLOBAL__N_126AssignmentTrackingLowering10AssignmentEET_RKS4_S4_(ptr noundef nonnull align 8 dereferenceable(8) %0, ptr noundef %1) #1 {
  %3 = alloca ptr, align 8
  %4 = alloca ptr, align 8
  store ptr %0, ptr %3, align 8
  store ptr %1, ptr %4, align 8
  %5 = load ptr, ptr %4, align 8
  ret ptr %5
}

; Function Attrs: mustprogress nounwind uwtable
define internal noundef ptr @_ZSt14__copy_move_a1ILb0EPKN12_GLOBAL__N_126AssignmentTrackingLowering10AssignmentEPS2_ET1_T0_S7_S6_(ptr noundef %0, ptr noundef %1, ptr noundef %2) #1 {
  %4 = alloca ptr, align 8
  %5 = alloca ptr, align 8
  %6 = alloca ptr, align 8
  store ptr %0, ptr %4, align 8
  store ptr %1, ptr %5, align 8
  store ptr %2, ptr %6, align 8
  %7 = load ptr, ptr %4, align 8
  %8 = load ptr, ptr %5, align 8
  %9 = load ptr, ptr %6, align 8
  %10 = call noundef ptr @_ZSt14__copy_move_a2ILb0EPKN12_GLOBAL__N_126AssignmentTrackingLowering10AssignmentEPS2_ET1_T0_S7_S6_(ptr noundef %7, ptr noundef %8, ptr noundef %9)
  ret ptr %10
}

; Function Attrs: mustprogress nounwind uwtable
define internal noundef ptr @_ZSt12__niter_baseIPN12_GLOBAL__N_126AssignmentTrackingLowering10AssignmentEET_S4_(ptr noundef %0) #1 {
  %2 = alloca ptr, align 8
  store ptr %0, ptr %2, align 8
  %3 = load ptr, ptr %2, align 8
  ret ptr %3
}

; Function Attrs: mustprogress nounwind uwtable
define internal noundef ptr @_ZSt12__niter_baseIPKN12_GLOBAL__N_126AssignmentTrackingLowering10AssignmentEET_S5_(ptr noundef %0) #1 {
  %2 = alloca ptr, align 8
  store ptr %0, ptr %2, align 8
  %3 = load ptr, ptr %2, align 8
  ret ptr %3
}

; Function Attrs: mustprogress nounwind uwtable
define internal void @_ZN4llvm25SmallVectorTemplateCommonIN12_GLOBAL__N_126AssignmentTrackingLowering10AssignmentEvE8grow_podEmm(ptr noundef nonnull align 8 dereferenceable(16) %0, i64 noundef %1, i64 noundef %2) #1 align 2 {
  %4 = alloca ptr, align 8
  %5 = alloca i64, align 8
  %6 = alloca i64, align 8
  store ptr %0, ptr %4, align 8
  store i64 %1, ptr %5, align 8
  store i64 %2, ptr %6, align 8
  %7 = load ptr, ptr %4, align 8
  %8 = call noundef ptr @_ZNK4llvm25SmallVectorTemplateCommonIN12_GLOBAL__N_126AssignmentTrackingLowering10AssignmentEvE10getFirstElEv(ptr noundef nonnull align 8 dereferenceable(16) %7)
  %9 = load i64, ptr %5, align 8
  %10 = load i64, ptr %6, align 8
  call void @_ZN4llvm15SmallVectorBaseIjE8grow_podEPvmm(ptr noundef nonnull align 8 dereferenceable(16) %7, ptr noundef %8, i64 noundef %9, i64 noundef %10)
  ret void
}

; Function Attrs: mustprogress nounwind uwtable
define internal noundef ptr @_ZSt13__copy_move_aILb0EPKN12_GLOBAL__N_126AssignmentTrackingLowering10AssignmentEPS2_ET1_T0_S7_S6_(ptr noundef %0, ptr noundef %1, ptr noundef %2) #1 {
  %4 = alloca ptr, align 8
  %5 = alloca ptr, align 8
  %6 = alloca ptr, align 8
  store ptr %0, ptr %4, align 8
  store ptr %1, ptr %5, align 8
  store ptr %2, ptr %6, align 8
  %7 = load ptr, ptr %4, align 8
  %8 = call noundef ptr @_ZSt12__niter_baseIPKN12_GLOBAL__N_126AssignmentTrackingLowering10AssignmentEET_S5_(ptr noundef %7) #2
  %9 = load ptr, ptr %5, align 8
  %10 = call noundef ptr @_ZSt12__niter_baseIPKN12_GLOBAL__N_126AssignmentTrackingLowering10AssignmentEET_S5_(ptr noundef %9) #2
  %11 = load ptr, ptr %6, align 8
  %12 = call noundef ptr @_ZSt12__niter_baseIPN12_GLOBAL__N_126AssignmentTrackingLowering10AssignmentEET_S4_(ptr noundef %11) #2
  %13 = call noundef ptr @_ZSt14__copy_move_a1ILb0EPKN12_GLOBAL__N_126AssignmentTrackingLowering10AssignmentEPS2_ET1_T0_S7_S6_(ptr noundef %8, ptr noundef %10, ptr noundef %12)
  %14 = call noundef ptr @_ZSt12__niter_wrapIPN12_GLOBAL__N_126AssignmentTrackingLowering10AssignmentEET_RKS4_S4_(ptr noundef nonnull align 8 dereferenceable(8) %6, ptr noundef %13)
  ret ptr %14
}

; Function Attrs: mustprogress nounwind uwtable
define internal noundef ptr @_ZSt12__miter_baseIPKN12_GLOBAL__N_126AssignmentTrackingLowering10AssignmentEET_S5_(ptr noundef %0) #1 {
  %2 = alloca ptr, align 8
  store ptr %0, ptr %2, align 8
  %3 = load ptr, ptr %2, align 8
  ret ptr %3
}

; Function Attrs: mustprogress nounwind uwtable
define internal void @_ZN4llvm23SmallVectorTemplateBaseIN12_GLOBAL__N_126AssignmentTrackingLowering10AssignmentELb1EE18uninitialized_copyIKS3_S3_EEvPT_S8_PT0_PNSt9enable_ifIXsr3std7is_sameINSt12remove_constIS7_E4typeES9_EE5valueEvE4typeE(ptr noundef %0, ptr noundef %1, ptr noundef %2, ptr noundef %3) #1 align 2 {
  %5 = alloca ptr, align 8
  %6 = alloca ptr, align 8
  %7 = alloca ptr, align 8
  %8 = alloca ptr, align 8
  store ptr %0, ptr %5, align 8
  store ptr %1, ptr %6, align 8
  store ptr %2, ptr %7, align 8
  store ptr %3, ptr %8, align 8
  %9 = load ptr, ptr %5, align 8
  %10 = load ptr, ptr %6, align 8
  %11 = icmp ne ptr %9, %10
  br i1 %11, label %12, label %22

12:                                               ; preds = %4
  %13 = load ptr, ptr %7, align 8
  %14 = load ptr, ptr %5, align 8
  %15 = load ptr, ptr %6, align 8
  %16 = load ptr, ptr %5, align 8
  %17 = ptrtoint ptr %15 to i64
  %18 = ptrtoint ptr %16 to i64
  %19 = sub i64 %17, %18
  %20 = sdiv exact i64 %19, 24
  %21 = mul i64 %20, 24
  call void @llvm.memcpy.p0.p0.i64(ptr align 1 %13, ptr align 8 %14, i64 %21, i1 false)
  br label %22

22:                                               ; preds = %12, %4
  ret void
}

; Function Attrs: mustprogress nounwind uwtable
define internal noundef ptr @_ZNK4llvm25SmallVectorTemplateCommonIN12_GLOBAL__N_126AssignmentTrackingLowering10AssignmentEvE3endEv(ptr noundef nonnull align 8 dereferenceable(16) %0) #1 align 2 {
  %2 = alloca ptr, align 8
  store ptr %0, ptr %2, align 8
  %3 = load ptr, ptr %2, align 8
  %4 = call noundef ptr @_ZNK4llvm25SmallVectorTemplateCommonIN12_GLOBAL__N_126AssignmentTrackingLowering10AssignmentEvE5beginEv(ptr noundef nonnull align 8 dereferenceable(16) %3)
  %5 = call noundef i64 @_ZNK4llvm15SmallVectorBaseIjE4sizeEv(ptr noundef nonnull align 8 dereferenceable(16) %3)
  %6 = getelementptr inbounds %"struct.(anonymous namespace)::AssignmentTrackingLowering::Assignment", ptr %4, i64 %5
  ret ptr %6
}

; Function Attrs: mustprogress nounwind uwtable
define internal void @_ZN4llvm23SmallVectorTemplateBaseIN12_GLOBAL__N_126AssignmentTrackingLowering10AssignmentELb1EE4growEm(ptr noundef nonnull align 8 dereferenceable(16) %0, i64 noundef %1) #1 align 2 {
  %3 = alloca ptr, align 8
  %4 = alloca i64, align 8
  store ptr %0, ptr %3, align 8
  store i64 %1, ptr %4, align 8
  %5 = load ptr, ptr %3, align 8
  %6 = load i64, ptr %4, align 8
  call void @_ZN4llvm25SmallVectorTemplateCommonIN12_GLOBAL__N_126AssignmentTrackingLowering10AssignmentEvE8grow_podEmm(ptr noundef nonnull align 8 dereferenceable(16) %5, i64 noundef %6, i64 noundef 24)
  ret void
}

; Function Attrs: mustprogress nounwind uwtable
define internal void @_ZN4llvm15SmallVectorImplIN12_GLOBAL__N_126AssignmentTrackingLowering10AssignmentEE5clearEv(ptr noundef nonnull align 8 dereferenceable(16) %0) #1 align 2 {
  %2 = alloca ptr, align 8
  store ptr %0, ptr %2, align 8
  %3 = load ptr, ptr %2, align 8
  %4 = call noundef ptr @_ZN4llvm25SmallVectorTemplateCommonIN12_GLOBAL__N_126AssignmentTrackingLowering10AssignmentEvE5beginEv(ptr noundef nonnull align 8 dereferenceable(16) %3)
  %5 = call noundef ptr @_ZN4llvm25SmallVectorTemplateCommonIN12_GLOBAL__N_126AssignmentTrackingLowering10AssignmentEvE3endEv(ptr noundef nonnull align 8 dereferenceable(16) %3)
  call void @_ZN4llvm23SmallVectorTemplateBaseIN12_GLOBAL__N_126AssignmentTrackingLowering10AssignmentELb1EE13destroy_rangeEPS3_S5_(ptr noundef %4, ptr noundef %5)
  %6 = getelementptr inbounds nuw %"class.llvm::SmallVectorBase", ptr %3, i32 0, i32 1
  store i32 0, ptr %6, align 8
  ret void
}

; Function Attrs: mustprogress nounwind uwtable
define internal void @_ZN4llvm23SmallVectorTemplateBaseIN12_GLOBAL__N_126AssignmentTrackingLowering10AssignmentELb1EE13destroy_rangeEPS3_S5_(ptr noundef %0, ptr noundef %1) #1 align 2 {
  %3 = alloca ptr, align 8
  %4 = alloca ptr, align 8
  store ptr %0, ptr %3, align 8
  store ptr %1, ptr %4, align 8
  ret void
}

; Function Attrs: mustprogress nounwind uwtable
define internal noundef ptr @_ZN4llvm25SmallVectorTemplateCommonIN12_GLOBAL__N_126AssignmentTrackingLowering10AssignmentEvE3endEv(ptr noundef nonnull align 8 dereferenceable(16) %0) #1 align 2 {
  %2 = alloca ptr, align 8
  store ptr %0, ptr %2, align 8
  %3 = load ptr, ptr %2, align 8
  %4 = call noundef ptr @_ZN4llvm25SmallVectorTemplateCommonIN12_GLOBAL__N_126AssignmentTrackingLowering10AssignmentEvE5beginEv(ptr noundef nonnull align 8 dereferenceable(16) %3)
  %5 = call noundef i64 @_ZNK4llvm15SmallVectorBaseIjE4sizeEv(ptr noundef nonnull align 8 dereferenceable(16) %3)
  %6 = getelementptr inbounds %"struct.(anonymous namespace)::AssignmentTrackingLowering::Assignment", ptr %4, i64 %5
  ret ptr %6
}

; Function Attrs: mustprogress nounwind uwtable
define internal noundef ptr @_ZSt4copyIPKN12_GLOBAL__N_126AssignmentTrackingLowering10AssignmentEPS2_ET0_T_S7_S6_(ptr noundef %0, ptr noundef %1, ptr noundef %2) #1 {
  %4 = alloca ptr, align 8
  %5 = alloca ptr, align 8
  %6 = alloca ptr, align 8
  store ptr %0, ptr %4, align 8
  store ptr %1, ptr %5, align 8
  store ptr %2, ptr %6, align 8
  %7 = load ptr, ptr %4, align 8
  %8 = call noundef ptr @_ZSt12__miter_baseIPKN12_GLOBAL__N_126AssignmentTrackingLowering10AssignmentEET_S5_(ptr noundef %7)
  %9 = load ptr, ptr %5, align 8
  %10 = call noundef ptr @_ZSt12__miter_baseIPKN12_GLOBAL__N_126AssignmentTrackingLowering10AssignmentEET_S5_(ptr noundef %9)
  %11 = load ptr, ptr %6, align 8
  %12 = call noundef ptr @_ZSt13__copy_move_aILb0EPKN12_GLOBAL__N_126AssignmentTrackingLowering10AssignmentEPS2_ET1_T0_S7_S6_(ptr noundef %8, ptr noundef %10, ptr noundef %11)
  ret ptr %12
}

; Function Attrs: mustprogress nounwind uwtable
define internal noundef ptr @_ZN4llvm25SmallVectorTemplateCommonIN12_GLOBAL__N_126AssignmentTrackingLowering10AssignmentEvE5beginEv(ptr noundef nonnull align 8 dereferenceable(16) %0) #1 align 2 {
  %2 = alloca ptr, align 8
  store ptr %0, ptr %2, align 8
  %3 = load ptr, ptr %2, align 8
  %4 = getelementptr inbounds nuw %"class.llvm::SmallVectorBase", ptr %3, i32 0, i32 0
  %5 = load ptr, ptr %4, align 8
  ret ptr %5
}

; Function Attrs: mustprogress nounwind uwtable
define internal noundef ptr @_ZNK4llvm25SmallVectorTemplateCommonIN12_GLOBAL__N_126AssignmentTrackingLowering10AssignmentEvE5beginEv(ptr noundef nonnull align 8 dereferenceable(16) %0) #1 align 2 {
  %2 = alloca ptr, align 8
  store ptr %0, ptr %2, align 8
  %3 = load ptr, ptr %2, align 8
  %4 = getelementptr inbounds nuw %"class.llvm::SmallVectorBase", ptr %3, i32 0, i32 0
  %5 = load ptr, ptr %4, align 8
  ret ptr %5
}

; Function Attrs: mustprogress nounwind uwtable
define internal noundef nonnull align 8 dereferenceable(16) ptr @_ZN4llvm15SmallVectorImplIN12_GLOBAL__N_126AssignmentTrackingLowering10AssignmentEEaSERKS4_(ptr noundef nonnull align 8 dereferenceable(16) %0, ptr noundef nonnull align 8 dereferenceable(16) %1) #1 align 2 {
  %3 = alloca ptr, align 8
  %4 = alloca ptr, align 8
  %5 = alloca ptr, align 8
  %6 = alloca i64, align 8
  %7 = alloca i64, align 8
  %8 = alloca ptr, align 8
  store ptr %0, ptr %4, align 8
  store ptr %1, ptr %5, align 8
  %9 = load ptr, ptr %4, align 8
  %10 = load ptr, ptr %5, align 8
  %11 = icmp eq ptr %9, %10
  br i1 %11, label %12, label %13

12:                                               ; preds = %2
  store ptr %9, ptr %3, align 8
  br label %68

13:                                               ; preds = %2
  %14 = load ptr, ptr %5, align 8
  %15 = call noundef i64 @_ZNK4llvm15SmallVectorBaseIjE4sizeEv(ptr noundef nonnull align 8 dereferenceable(16) %14)
  store i64 %15, ptr %6, align 8
  %16 = call noundef i64 @_ZNK4llvm15SmallVectorBaseIjE4sizeEv(ptr noundef nonnull align 8 dereferenceable(16) %9)
  store i64 %16, ptr %7, align 8
  %17 = load i64, ptr %7, align 8
  %18 = load i64, ptr %6, align 8
  %19 = icmp uge i64 %17, %18
  br i1 %19, label %20, label %38

20:                                               ; preds = %13
  %21 = load i64, ptr %6, align 8
  %22 = icmp ne i64 %21, 0
  br i1 %22, label %23, label %32

23:                                               ; preds = %20
  %24 = load ptr, ptr %5, align 8
  %25 = call noundef ptr @_ZNK4llvm25SmallVectorTemplateCommonIN12_GLOBAL__N_126AssignmentTrackingLowering10AssignmentEvE5beginEv(ptr noundef nonnull align 8 dereferenceable(16) %24)
  %26 = load ptr, ptr %5, align 8
  %27 = call noundef ptr @_ZNK4llvm25SmallVectorTemplateCommonIN12_GLOBAL__N_126AssignmentTrackingLowering10AssignmentEvE5beginEv(ptr noundef nonnull align 8 dereferenceable(16) %26)
  %28 = load i64, ptr %6, align 8
  %29 = getelementptr inbounds %"struct.(anonymous namespace)::AssignmentTrackingLowering::Assignment", ptr %27, i64 %28
  %30 = call noundef ptr @_ZN4llvm25SmallVectorTemplateCommonIN12_GLOBAL__N_126AssignmentTrackingLowering10AssignmentEvE5beginEv(ptr noundef nonnull align 8 dereferenceable(16) %9)
  %31 = call noundef ptr @_ZSt4copyIPKN12_GLOBAL__N_126AssignmentTrackingLowering10AssignmentEPS2_ET0_T_S7_S6_(ptr noundef %25, ptr noundef %29, ptr noundef %30)
  store ptr %31, ptr %8, align 8
  br label %34

32:                                               ; preds = %20
  %33 = call noundef ptr @_ZN4llvm25SmallVectorTemplateCommonIN12_GLOBAL__N_126AssignmentTrackingLowering10AssignmentEvE5beginEv(ptr noundef nonnull align 8 dereferenceable(16) %9)
  store ptr %33, ptr %8, align 8
  br label %34

34:                                               ; preds = %32, %23
  %35 = load ptr, ptr %8, align 8
  %36 = call noundef ptr @_ZN4llvm25SmallVectorTemplateCommonIN12_GLOBAL__N_126AssignmentTrackingLowering10AssignmentEvE3endEv(ptr noundef nonnull align 8 dereferenceable(16) %9)
  call void @_ZN4llvm23SmallVectorTemplateBaseIN12_GLOBAL__N_126AssignmentTrackingLowering10AssignmentELb1EE13destroy_rangeEPS3_S5_(ptr noundef %35, ptr noundef %36)
  %37 = load i64, ptr %6, align 8
  call void @_ZN4llvm15SmallVectorBaseIjE8set_sizeEm(ptr noundef nonnull align 8 dereferenceable(16) %9, i64 noundef %37)
  store ptr %9, ptr %3, align 8
  br label %68

38:                                               ; preds = %13
  %39 = call noundef i64 @_ZNK4llvm15SmallVectorBaseIjE8capacityEv(ptr noundef nonnull align 8 dereferenceable(16) %9)
  %40 = load i64, ptr %6, align 8
  %41 = icmp ult i64 %39, %40
  br i1 %41, label %42, label %44

42:                                               ; preds = %38
  call void @_ZN4llvm15SmallVectorImplIN12_GLOBAL__N_126AssignmentTrackingLowering10AssignmentEE5clearEv(ptr noundef nonnull align 8 dereferenceable(16) %9)
  store i64 0, ptr %7, align 8
  %43 = load i64, ptr %6, align 8
  call void @_ZN4llvm23SmallVectorTemplateBaseIN12_GLOBAL__N_126AssignmentTrackingLowering10AssignmentELb1EE4growEm(ptr noundef nonnull align 8 dereferenceable(16) %9, i64 noundef %43)
  br label %57

44:                                               ; preds = %38
  %45 = load i64, ptr %7, align 8
  %46 = icmp ne i64 %45, 0
  br i1 %46, label %47, label %56

47:                                               ; preds = %44
  %48 = load ptr, ptr %5, align 8
  %49 = call noundef ptr @_ZNK4llvm25SmallVectorTemplateCommonIN12_GLOBAL__N_126AssignmentTrackingLowering10AssignmentEvE5beginEv(ptr noundef nonnull align 8 dereferenceable(16) %48)
  %50 = load ptr, ptr %5, align 8
  %51 = call noundef ptr @_ZNK4llvm25SmallVectorTemplateCommonIN12_GLOBAL__N_126AssignmentTrackingLowering10AssignmentEvE5beginEv(ptr noundef nonnull align 8 dereferenceable(16) %50)
  %52 = load i64, ptr %7, align 8
  %53 = getelementptr inbounds %"struct.(anonymous namespace)::AssignmentTrackingLowering::Assignment", ptr %51, i64 %52
  %54 = call noundef ptr @_ZN4llvm25SmallVectorTemplateCommonIN12_GLOBAL__N_126AssignmentTrackingLowering10AssignmentEvE5beginEv(ptr noundef nonnull align 8 dereferenceable(16) %9)
  %55 = call noundef ptr @_ZSt4copyIPKN12_GLOBAL__N_126AssignmentTrackingLowering10AssignmentEPS2_ET0_T_S7_S6_(ptr noundef %49, ptr noundef %53, ptr noundef %54)
  br label %56

56:                                               ; preds = %47, %44
  br label %57

57:                                               ; preds = %56, %42
  %58 = load ptr, ptr %5, align 8
  %59 = call noundef ptr @_ZNK4llvm25SmallVectorTemplateCommonIN12_GLOBAL__N_126AssignmentTrackingLowering10AssignmentEvE5beginEv(ptr noundef nonnull align 8 dereferenceable(16) %58)
  %60 = load i64, ptr %7, align 8
  %61 = getelementptr inbounds %"struct.(anonymous namespace)::AssignmentTrackingLowering::Assignment", ptr %59, i64 %60
  %62 = load ptr, ptr %5, align 8
  %63 = call noundef ptr @_ZNK4llvm25SmallVectorTemplateCommonIN12_GLOBAL__N_126AssignmentTrackingLowering10AssignmentEvE3endEv(ptr noundef nonnull align 8 dereferenceable(16) %62)
  %64 = call noundef ptr @_ZN4llvm25SmallVectorTemplateCommonIN12_GLOBAL__N_126AssignmentTrackingLowering10AssignmentEvE5beginEv(ptr noundef nonnull align 8 dereferenceable(16) %9)
  %65 = load i64, ptr %7, align 8
  %66 = getelementptr inbounds %"struct.(anonymous namespace)::AssignmentTrackingLowering::Assignment", ptr %64, i64 %65
  call void @_ZN4llvm23SmallVectorTemplateBaseIN12_GLOBAL__N_126AssignmentTrackingLowering10AssignmentELb1EE18uninitialized_copyIKS3_S3_EEvPT_S8_PT0_PNSt9enable_ifIXsr3std7is_sameINSt12remove_constIS7_E4typeES9_EE5valueEvE4typeE(ptr noundef %61, ptr noundef %63, ptr noundef %66, ptr noundef null)
  %67 = load i64, ptr %6, align 8
  call void @_ZN4llvm15SmallVectorBaseIjE8set_sizeEm(ptr noundef nonnull align 8 dereferenceable(16) %9, i64 noundef %67)
  store ptr %9, ptr %3, align 8
  br label %68

68:                                               ; preds = %57, %34, %12
  %69 = load ptr, ptr %3, align 8
  ret ptr %69
}