; Function Attrs: mustprogress nounwind uwtable
define internal fastcc noundef nonnull align 8 dereferenceable(16) ptr @_ZN4llvm15SmallVectorImplIN12_GLOBAL__N_126AssignmentTrackingLowering10AssignmentEEaSERKS4_(ptr noundef nonnull returned align 8 dereferenceable(16) %0, ptr noundef nonnull align 8 dereferenceable(16) %1) unnamed_addr #0 align 2 {
  %3 = icmp eq ptr %0, %1
  br i1 %3, label %23, label %4

4:                                                ; preds = %2
  %5 = tail call noundef i64 @_ZNK4llvm15SmallVectorBaseIjE4sizeEv(ptr noundef nonnull align 8 dereferenceable(16) %1) #25
  %6 = tail call noundef i64 @_ZNK4llvm15SmallVectorBaseIjE4sizeEv(ptr noundef nonnull align 8 dereferenceable(16) %0) #25
  %.not = icmp ult i64 %6, %5
  br i1 %.not, label %10, label %7

7:                                                ; preds = %4
  %.not29 = icmp eq i64 %5, 0
  br i1 %.not29, label %_ZSt4copyIPKN12_GLOBAL__N_126AssignmentTrackingLowering10AssignmentEPS2_ET0_T_S7_S6_.exit, label %8

8:                                                ; preds = %7
  %.val37 = load ptr, ptr %1, align 8
  %.idx = mul nsw i64 %5, 24
  %.val32 = load ptr, ptr %0, align 8
  tail call void @llvm.memmove.p0.p0.i64(ptr align 8 %.val32, ptr align 8 %.val37, i64 %.idx, i1 false)
  br label %_ZSt4copyIPKN12_GLOBAL__N_126AssignmentTrackingLowering10AssignmentEPS2_ET0_T_S7_S6_.exit

_ZSt4copyIPKN12_GLOBAL__N_126AssignmentTrackingLowering10AssignmentEPS2_ET0_T_S7_S6_.exit: ; preds = %7, %8
  %9 = tail call noundef i64 @_ZNK4llvm15SmallVectorBaseIjE4sizeEv(ptr noundef nonnull align 8 dereferenceable(16) %0) #25
  br label %.sink.split

10:                                               ; preds = %4
  %11 = tail call noundef i64 @_ZNK4llvm15SmallVectorBaseIjE8capacityEv(ptr noundef nonnull align 8 dereferenceable(16) %0) #25
  %12 = icmp ult i64 %11, %5
  br i1 %12, label %13, label %17

13:                                               ; preds = %10
  %14 = tail call noundef i64 @_ZNK4llvm15SmallVectorBaseIjE4sizeEv(ptr noundef nonnull align 8 dereferenceable(16) %0) #25
  %15 = getelementptr inbounds nuw i8, ptr %0, i64 8
  store i32 0, ptr %15, align 8
  %16 = getelementptr inbounds i8, ptr %0, i64 16
  tail call void @_ZN4llvm15SmallVectorBaseIjE8grow_podEPvmm(ptr noundef nonnull align 8 dereferenceable(16) %0, ptr noundef nonnull %16, i64 noundef %5, i64 noundef 24) #25
  br label %_ZSt4copyIPKN12_GLOBAL__N_126AssignmentTrackingLowering10AssignmentEPS2_ET0_T_S7_S6_.exit39

17:                                               ; preds = %10
  %.not28 = icmp eq i64 %6, 0
  br i1 %.not28, label %_ZSt4copyIPKN12_GLOBAL__N_126AssignmentTrackingLowering10AssignmentEPS2_ET0_T_S7_S6_.exit39, label %18

18:                                               ; preds = %17
  %.val35 = load ptr, ptr %1, align 8
  %.idx42 = mul nsw i64 %6, 24
  %.val30 = load ptr, ptr %0, align 8
  tail call void @llvm.memmove.p0.p0.i64(ptr align 8 %.val30, ptr align 8 %.val35, i64 %.idx42, i1 false)
  br label %_ZSt4copyIPKN12_GLOBAL__N_126AssignmentTrackingLowering10AssignmentEPS2_ET0_T_S7_S6_.exit39

_ZSt4copyIPKN12_GLOBAL__N_126AssignmentTrackingLowering10AssignmentEPS2_ET0_T_S7_S6_.exit39: ; preds = %18, %17, %13
  %.022 = phi i64 [ 0, %13 ], [ 0, %17 ], [ %6, %18 ]
  %.val33 = load ptr, ptr %1, align 8
  %19 = tail call noundef i64 @_ZNK4llvm15SmallVectorBaseIjE4sizeEv(ptr noundef nonnull align 8 dereferenceable(16) %1) #25
  %.not.i = icmp eq i64 %.022, %19
  br i1 %.not.i, label %.sink.split, label %20

20:                                               ; preds = %_ZSt4copyIPKN12_GLOBAL__N_126AssignmentTrackingLowering10AssignmentEPS2_ET0_T_S7_S6_.exit39
  %.idx45 = mul nsw i64 %.022, 24
  %21 = getelementptr inbounds i8, ptr %.val33, i64 %.idx45
  %.val = load ptr, ptr %0, align 8
  %22 = getelementptr inbounds %"struct.(anonymous namespace)::AssignmentTrackingLowering::Assignment", ptr %.val, i64 %.022
  %.idx4446 = sub i64 %19, %.022
  %gepdiff = mul i64 %.idx4446, 24
  tail call void @llvm.memcpy.p0.p0.i64(ptr align 1 %22, ptr align 8 %21, i64 %gepdiff, i1 false)
  br label %.sink.split

.sink.split:                                      ; preds = %20, %_ZSt4copyIPKN12_GLOBAL__N_126AssignmentTrackingLowering10AssignmentEPS2_ET0_T_S7_S6_.exit39, %_ZSt4copyIPKN12_GLOBAL__N_126AssignmentTrackingLowering10AssignmentEPS2_ET0_T_S7_S6_.exit
  tail call void @_ZN4llvm15SmallVectorBaseIjE8set_sizeEm(ptr noundef nonnull align 8 dereferenceable(16) %0, i64 noundef %5) #25
  br label %23

23:                                               ; preds = %.sink.split, %2
  ret ptr %0
}